target datalayout = "e-m:e-p270:32:32-p271:32:32-p272:64:64-i64:64-i128:128-f80:128-n8:16:32:64-S128"
target triple = "x86_64-pc-linux-gnu"

%struct.jit_State = type { %struct.GCtrace, ptr, ptr, ptr, ptr, ptr, ptr, i32, i32, i32, i8, i8, %struct.IRType1, i8, %struct.FoldState, ptr, i32, i32, i32, i32, i32, i32, i32, [1 x i32], [5 x %union.TValue], [3 x %union.TValue], ptr, i32, i32, i32, i32, ptr, ptr, i32, i32, i8, ptr, i32, i32, i16, [101 x i16], [258 x i32], [15 x i32], [16 x ptr], [64 x %struct.HotPenalty], i32, [16 x %struct.BPropEntry], i32, %struct.ScEvEntry, ptr, i32, i32, i32, ptr, i32, i32, ptr, ptr, ptr, i64, i64, %union.TValue, ptr, i32, i32 }
%struct.GCtrace = type { %struct.GCRef, i8, i8, i16, i32, i32, %struct.GCRef, ptr, i32, i32, ptr, ptr, %struct.GCRef, %struct.MRef, i32, i32, ptr, i32, i16, i16, i16, i16, i16, i16, i16, i8, i8, i8, i8 }
%struct.GCRef = type { i64 }
%struct.MRef = type { i64 }
%struct.IRType1 = type { i8 }
%struct.FoldState = type { %union.IRIns, [2 x %union.IRIns], [2 x %union.IRIns] }
%union.IRIns = type { %struct.GCRef }
%struct.HotPenalty = type { %struct.MRef, i16, i16 }
%struct.BPropEntry = type { i16, i16, i32 }
%struct.ScEvEntry = type { %struct.MRef, i16, i16, i16, i16, %struct.IRType1, i8 }
%union.TValue = type { i64 }
%struct.anon.1 = type { i16, i16, i16, i16 }
%struct.RecordIndex = type { %union.TValue, %union.TValue, %union.TValue, %union.TValue, ptr, ptr, i32, i32, i32, i32, i32, i32 }
%struct.GCtab = type { %struct.GCRef, i8, i8, i8, i8, %struct.MRef, %struct.GCRef, %struct.GCRef, %struct.MRef, i32, i32, %struct.MRef }
%struct.GCudata = type { %struct.GCRef, i8, i8, i8, i8, %struct.GCRef, i32, %struct.GCRef, i32 }

@.str = private unnamed_addr constant [23 x i8] c"copy of dead GC object\00", align 1

; Function Attrs: alwaysinline nounwind uwtable
define internal void @checklivetv(ptr noundef %0, ptr noundef %1, ptr noundef %2) #3 {
  %4 = alloca ptr, align 8
  %5 = alloca ptr, align 8
  %6 = alloca ptr, align 8
  store ptr %0, ptr %4, align 8, !tbaa !82
  store ptr %1, ptr %5, align 8, !tbaa !11
  store ptr %2, ptr %6, align 8, !tbaa !183
  ret void
}

; Function Attrs: alwaysinline nounwind uwtable
define internal void @lj_ir_set_(ptr noundef %0, i16 noundef zeroext %1, i16 noundef zeroext %2, i16 noundef zeroext %3) #3 {
  %5 = alloca ptr, align 8
  %6 = alloca i16, align 2
  %7 = alloca i16, align 2
  %8 = alloca i16, align 2
  store ptr %0, ptr %5, align 8, !tbaa !4
  store i16 %1, ptr %6, align 2, !tbaa !13
  store i16 %2, ptr %7, align 2, !tbaa !13
  store i16 %3, ptr %8, align 2, !tbaa !13
  %9 = load i16, ptr %6, align 2, !tbaa !13
  %10 = load ptr, ptr %5, align 8, !tbaa !4
  %11 = getelementptr inbounds nuw %struct.jit_State, ptr %10, i32 0, i32 14
  %12 = getelementptr inbounds nuw %struct.FoldState, ptr %11, i32 0, i32 0
  %13 = getelementptr inbounds nuw %struct.anon.1, ptr %12, i32 0, i32 2
  store i16 %9, ptr %13, align 4, !tbaa !15
  %14 = load i16, ptr %7, align 2, !tbaa !13
  %15 = load ptr, ptr %5, align 8, !tbaa !4
  %16 = getelementptr inbounds nuw %struct.jit_State, ptr %15, i32 0, i32 14
  %17 = getelementptr inbounds nuw %struct.FoldState, ptr %16, i32 0, i32 0
  %18 = getelementptr inbounds nuw %struct.anon.1, ptr %17, i32 0, i32 0
  store i16 %14, ptr %18, align 8, !tbaa !15
  %19 = load i16, ptr %8, align 2, !tbaa !13
  %20 = load ptr, ptr %5, align 8, !tbaa !4
  %21 = getelementptr inbounds nuw %struct.jit_State, ptr %20, i32 0, i32 14
  %22 = getelementptr inbounds nuw %struct.FoldState, ptr %21, i32 0, i32 0
  %23 = getelementptr inbounds nuw %struct.anon.1, ptr %22, i32 0, i32 1
  store i16 %19, ptr %23, align 2, !tbaa !15
  ret void
}

; Function Attrs: alwaysinline nounwind uwtable
define internal void @copyTV(ptr noundef %0, ptr noundef %1, ptr noundef %2) #3 {
  %4 = alloca ptr, align 8
  %5 = alloca ptr, align 8
  %6 = alloca ptr, align 8
  store ptr %0, ptr %4, align 8, !tbaa !82
  store ptr %1, ptr %5, align 8, !tbaa !11
  store ptr %2, ptr %6, align 8, !tbaa !11
  %7 = load ptr, ptr %5, align 8, !tbaa !11
  %8 = load ptr, ptr %6, align 8, !tbaa !11
  call void @llvm.memcpy.p0.p0.i64(ptr align 8 %7, ptr align 8 %8, i64 8, i1 false), !tbaa.struct !83
  %9 = load ptr, ptr %4, align 8, !tbaa !82
  %10 = load ptr, ptr %5, align 8, !tbaa !11
  call void @checklivetv(ptr noundef %9, ptr noundef %10, ptr noundef @.str)
  ret void
}

; Function Attrs: nounwind uwtable
define internal void @rec_mm_equal(ptr noundef %0, ptr noundef %1, i32 noundef %2) #0 {
  %4 = alloca ptr, align 8
  %5 = alloca ptr, align 8
  %6 = alloca i32, align 4
  %7 = alloca ptr, align 8
  %8 = alloca i32, align 4
  %9 = alloca %union.TValue, align 8
  %10 = alloca i32, align 4
  %11 = alloca i32, align 4
  %12 = alloca i32, align 4
  store ptr %0, ptr %4, align 8, !tbaa !4
  store ptr %1, ptr %5, align 8, !tbaa !90
  store i32 %2, ptr %6, align 4, !tbaa !9
  %13 = load ptr, ptr %5, align 8, !tbaa !90
  %14 = getelementptr inbounds nuw %struct.RecordIndex, ptr %13, i32 0, i32 8
  %15 = load i32, ptr %14, align 8, !tbaa !99
  %16 = load ptr, ptr %5, align 8, !tbaa !90
  %17 = getelementptr inbounds nuw %struct.RecordIndex, ptr %16, i32 0, i32 6
  store i32 %15, ptr %17, align 8, !tbaa !56
  %18 = load ptr, ptr %4, align 8, !tbaa !4
  %19 = getelementptr inbounds nuw %struct.jit_State, ptr %18, i32 0, i32 2
  %20 = load ptr, ptr %19, align 8, !tbaa !51
  %21 = load ptr, ptr %5, align 8, !tbaa !90
  %22 = getelementptr inbounds nuw %struct.RecordIndex, ptr %21, i32 0, i32 0
  %23 = load ptr, ptr %5, align 8, !tbaa !90
  %24 = getelementptr inbounds nuw %struct.RecordIndex, ptr %23, i32 0, i32 2
  call void @copyTV(ptr noundef %20, ptr noundef %22, ptr noundef %24)
  %25 = load ptr, ptr %4, align 8, !tbaa !4
  %26 = load ptr, ptr %5, align 8, !tbaa !90
  %27 = call i32 @lj_record_mm_lookup(ptr noundef %25, ptr noundef %26, i32 noundef 4)
  %28 = icmp ne i32 %27, 0
  br i1 %28, label %29, label %149

29:                                               ; preds = %3
  call void @llvm.lifetime.start.p0(i64 8, ptr %7) #9
  call void @llvm.lifetime.start.p0(i64 4, ptr %8) #9
  %30 = load ptr, ptr %5, align 8, !tbaa !90
  %31 = getelementptr inbounds nuw %struct.RecordIndex, ptr %30, i32 0, i32 10
  %32 = load i32, ptr %31, align 8, !tbaa !59
  store i32 %32, ptr %8, align 4, !tbaa !9
  call void @llvm.lifetime.start.p0(i64 8, ptr %9) #9
  %33 = load ptr, ptr %4, align 8, !tbaa !4
  %34 = getelementptr inbounds nuw %struct.jit_State, ptr %33, i32 0, i32 2
  %35 = load ptr, ptr %34, align 8, !tbaa !51
  %36 = load ptr, ptr %5, align 8, !tbaa !90
  %37 = getelementptr inbounds nuw %struct.RecordIndex, ptr %36, i32 0, i32 3
  call void @copyTV(ptr noundef %35, ptr noundef %9, ptr noundef %37)
  %38 = load ptr, ptr %5, align 8, !tbaa !90
  %39 = getelementptr inbounds nuw %struct.RecordIndex, ptr %38, i32 0, i32 1
  store ptr %39, ptr %7, align 8, !tbaa !11
  %40 = load ptr, ptr %7, align 8, !tbaa !11
  %41 = load i64, ptr %40, align 8, !tbaa !15
  %42 = ashr i64 %41, 47
  %43 = trunc i64 %42 to i32
  %44 = icmp eq i32 %43, -12
  br i1 %44, label %45, label %76

45:                                               ; preds = %29
  %46 = load ptr, ptr %7, align 8, !tbaa !11
  %47 = getelementptr inbounds nuw %struct.GCRef, ptr %46, i32 0, i32 0
  %48 = load i64, ptr %47, align 8, !tbaa !15
  %49 = and i64 %48, 140737488355327
  %50 = inttoptr i64 %49 to ptr
  %51 = getelementptr inbounds nuw %struct.GCtab, ptr %50, i32 0, i32 7
  %52 = getelementptr inbounds nuw %struct.GCRef, ptr %51, i32 0, i32 0
  %53 = load i64, ptr %52, align 8, !tbaa !15
  %54 = inttoptr i64 %53 to ptr
  %55 = load ptr, ptr %5, align 8, !tbaa !90
  %56 = getelementptr inbounds nuw %struct.RecordIndex, ptr %55, i32 0, i32 4
  %57 = load ptr, ptr %56, align 8, !tbaa !95
  %58 = icmp eq ptr %54, %57
  br i1 %58, label %59, label %76

59:                                               ; preds = %45
  call void @llvm.lifetime.start.p0(i64 4, ptr %10) #9
  %60 = load ptr, ptr %4, align 8, !tbaa !4
  %61 = load ptr, ptr %5, align 8, !tbaa !90
  %62 = getelementptr inbounds nuw %struct.RecordIndex, ptr %61, i32 0, i32 7
  %63 = load i32, ptr %62, align 4, !tbaa !98
  %64 = trunc i32 %63 to i16
  call void @lj_ir_set_(ptr noundef %60, i16 noundef zeroext 17675, i16 noundef zeroext %64, i16 noundef zeroext 5)
  %65 = load ptr, ptr %4, align 8, !tbaa !4
  %66 = call i32 @lj_opt_fold(ptr noundef %65)
  store i32 %66, ptr %10, align 4, !tbaa !9
  %67 = load ptr, ptr %4, align 8, !tbaa !4
  %68 = load i32, ptr %10, align 4, !tbaa !9
  %69 = trunc i32 %68 to i16
  %70 = load ptr, ptr %5, align 8, !tbaa !90
  %71 = getelementptr inbounds nuw %struct.RecordIndex, ptr %70, i32 0, i32 9
  %72 = load i32, ptr %71, align 4, !tbaa !94
  %73 = trunc i32 %72 to i16
  call void @lj_ir_set_(ptr noundef %67, i16 noundef zeroext 2187, i16 noundef zeroext %69, i16 noundef zeroext %73)
  %74 = load ptr, ptr %4, align 8, !tbaa !4
  %75 = call i32 @lj_opt_fold(ptr noundef %74)
  call void @llvm.lifetime.end.p0(i64 4, ptr %10) #9
  br label %142

76:                                               ; preds = %45, %29
  %77 = load ptr, ptr %7, align 8, !tbaa !11
  %78 = load i64, ptr %77, align 8, !tbaa !15
  %79 = ashr i64 %78, 47
  %80 = trunc i64 %79 to i32
  %81 = icmp eq i32 %80, -13
  br i1 %81, label %82, label %113

82:                                               ; preds = %76
  %83 = load ptr, ptr %7, align 8, !tbaa !11
  %84 = getelementptr inbounds nuw %struct.GCRef, ptr %83, i32 0, i32 0
  %85 = load i64, ptr %84, align 8, !tbaa !15
  %86 = and i64 %85, 140737488355327
  %87 = inttoptr i64 %86 to ptr
  %88 = getelementptr inbounds nuw %struct.GCudata, ptr %87, i32 0, i32 7
  %89 = getelementptr inbounds nuw %struct.GCRef, ptr %88, i32 0, i32 0
  %90 = load i64, ptr %89, align 8, !tbaa !15
  %91 = inttoptr i64 %90 to ptr
  %92 = load ptr, ptr %5, align 8, !tbaa !90
  %93 = getelementptr inbounds nuw %struct.RecordIndex, ptr %92, i32 0, i32 4
  %94 = load ptr, ptr %93, align 8, !tbaa !95
  %95 = icmp eq ptr %91, %94
  br i1 %95, label %96, label %113

96:                                               ; preds = %82
  call void @llvm.lifetime.start.p0(i64 4, ptr %11) #9
  %97 = load ptr, ptr %4, align 8, !tbaa !4
  %98 = load ptr, ptr %5, align 8, !tbaa !90
  %99 = getelementptr inbounds nuw %struct.RecordIndex, ptr %98, i32 0, i32 7
  %100 = load i32, ptr %99, align 4, !tbaa !98
  %101 = trunc i32 %100 to i16
  call void @lj_ir_set_(ptr noundef %97, i16 noundef zeroext 17675, i16 noundef zeroext %101, i16 noundef zeroext 11)
  %102 = load ptr, ptr %4, align 8, !tbaa !4
  %103 = call i32 @lj_opt_fold(ptr noundef %102)
  store i32 %103, ptr %11, align 4, !tbaa !9
  %104 = load ptr, ptr %4, align 8, !tbaa !4
  %105 = load i32, ptr %11, align 4, !tbaa !9
  %106 = trunc i32 %105 to i16
  %107 = load ptr, ptr %5, align 8, !tbaa !90
  %108 = getelementptr inbounds nuw %struct.RecordIndex, ptr %107, i32 0, i32 9
  %109 = load i32, ptr %108, align 4, !tbaa !94
  %110 = trunc i32 %109 to i16
  call void @lj_ir_set_(ptr noundef %104, i16 noundef zeroext 2187, i16 noundef zeroext %106, i16 noundef zeroext %110)
  %111 = load ptr, ptr %4, align 8, !tbaa !4
  %112 = call i32 @lj_opt_fold(ptr noundef %111)
  call void @llvm.lifetime.end.p0(i64 4, ptr %11) #9
  br label %141

113:                                              ; preds = %82, %76
  %114 = load ptr, ptr %5, align 8, !tbaa !90
  %115 = getelementptr inbounds nuw %struct.RecordIndex, ptr %114, i32 0, i32 7
  %116 = load i32, ptr %115, align 4, !tbaa !98
  %117 = load ptr, ptr %5, align 8, !tbaa !90
  %118 = getelementptr inbounds nuw %struct.RecordIndex, ptr %117, i32 0, i32 6
  store i32 %116, ptr %118, align 8, !tbaa !56
  %119 = load ptr, ptr %4, align 8, !tbaa !4
  %120 = getelementptr inbounds nuw %struct.jit_State, ptr %119, i32 0, i32 2
  %121 = load ptr, ptr %120, align 8, !tbaa !51
  %122 = load ptr, ptr %5, align 8, !tbaa !90
  %123 = getelementptr inbounds nuw %struct.RecordIndex, ptr %122, i32 0, i32 0
  %124 = load ptr, ptr %7, align 8, !tbaa !11
  call void @copyTV(ptr noundef %121, ptr noundef %123, ptr noundef %124)
  %125 = load ptr, ptr %4, align 8, !tbaa !4
  %126 = load ptr, ptr %5, align 8, !tbaa !90
  %127 = call i32 @lj_record_mm_lookup(ptr noundef %125, ptr noundef %126, i32 noundef 4)
  %128 = icmp ne i32 %127, 0
  br i1 %128, label %129, label %139

129:                                              ; preds = %113
  %130 = load ptr, ptr %4, align 8, !tbaa !4
  %131 = load i32, ptr %8, align 4, !tbaa !9
  %132 = load ptr, ptr %5, align 8, !tbaa !90
  %133 = getelementptr inbounds nuw %struct.RecordIndex, ptr %132, i32 0, i32 10
  %134 = load i32, ptr %133, align 8, !tbaa !59
  %135 = load ptr, ptr %5, align 8, !tbaa !90
  %136 = getelementptr inbounds nuw %struct.RecordIndex, ptr %135, i32 0, i32 3
  %137 = call i32 @lj_record_objcmp(ptr noundef %130, i32 noundef %131, i32 noundef %134, ptr noundef %9, ptr noundef %136)
  %138 = icmp ne i32 %137, 0
  br i1 %138, label %139, label %140

139:                                              ; preds = %129, %113
  store i32 1, ptr %12, align 4
  br label %146

140:                                              ; preds = %129
  br label %141

141:                                              ; preds = %140, %96
  br label %142

142:                                              ; preds = %141, %59
  %143 = load ptr, ptr %4, align 8, !tbaa !4
  %144 = load ptr, ptr %5, align 8, !tbaa !90
  %145 = load i32, ptr %6, align 4, !tbaa !9
  call void @rec_mm_callcomp(ptr noundef %143, ptr noundef %144, i32 noundef %145)
  store i32 0, ptr %12, align 4
  br label %146

146:                                              ; preds = %142, %139
  call void @llvm.lifetime.end.p0(i64 8, ptr %9) #9
  call void @llvm.lifetime.end.p0(i64 4, ptr %8) #9
  call void @llvm.lifetime.end.p0(i64 8, ptr %7) #9
  %147 = load i32, ptr %12, align 4
  switch i32 %147, label %150 [
    i32 0, label %148
    i32 1, label %149
  ]

148:                                              ; preds = %146
  br label %149

149:                                              ; preds = %146, %148, %3
  ret void

150:                                              ; preds = %146
  unreachable
}