; Function Attrs: nounwind uwtable
define internal fastcc void @rec_mm_equal(ptr noundef %0, ptr noundef nonnull initializes((0, 8), (48, 52), (60, 64)) %1, i32 noundef range(i32 0, 256) %2) unnamed_addr #0 {
  %4 = alloca %union.TValue, align 8
  %5 = getelementptr inbounds nuw i8, ptr %1, i64 56
  %6 = load i32, ptr %5, align 8, !tbaa !83
  %7 = getelementptr inbounds nuw i8, ptr %1, i64 48
  store i32 %6, ptr %7, align 8, !tbaa !49
  %8 = getelementptr inbounds nuw i8, ptr %1, i64 16
  %9 = load i64, ptr %8, align 8, !tbaa !4
  store i64 %9, ptr %1, align 8, !tbaa !4
  %10 = tail call i32 @lj_record_mm_lookup(ptr noundef %0, ptr noundef nonnull %1, i32 noundef 4)
  %.not = icmp eq i32 %10, 0
  br i1 %.not, label %56, label %11

11:                                               ; preds = %3
  %12 = getelementptr inbounds nuw i8, ptr %1, i64 64
  %13 = load i32, ptr %12, align 8, !tbaa !52
  call void @llvm.lifetime.start.p0(i64 8, ptr nonnull %4) #8
  %14 = getelementptr inbounds nuw i8, ptr %1, i64 24
  %15 = load i64, ptr %14, align 8, !tbaa !4
  store i64 %15, ptr %4, align 8, !tbaa !4
  %16 = getelementptr inbounds nuw i8, ptr %1, i64 8
  %17 = load i64, ptr %16, align 8, !tbaa !4
  %.mask = and i64 %17, -140737488355328
  switch i64 %.mask, label %.thread [
    i64 -1688849860263936, label %18
    i64 -1829587348619264, label %27
  ]

18:                                               ; preds = %11
  %19 = and i64 %17, 140737488355327
  %20 = inttoptr i64 %19 to ptr
  %21 = getelementptr inbounds nuw i8, ptr %20, i64 32
  %22 = load i64, ptr %21, align 8, !tbaa !4
  %23 = inttoptr i64 %22 to ptr
  %24 = getelementptr inbounds nuw i8, ptr %1, i64 32
  %25 = load ptr, ptr %24, align 8, !tbaa !81
  %26 = icmp eq ptr %25, %23
  br i1 %26, label %.sink.split, label %.thread

27:                                               ; preds = %11
  %28 = and i64 %17, 140737488355327
  %29 = inttoptr i64 %28 to ptr
  %30 = getelementptr inbounds nuw i8, ptr %29, i64 32
  %31 = load i64, ptr %30, align 8, !tbaa !4
  %32 = inttoptr i64 %31 to ptr
  %33 = getelementptr inbounds nuw i8, ptr %1, i64 32
  %34 = load ptr, ptr %33, align 8, !tbaa !81
  %35 = icmp eq ptr %34, %32
  br i1 %35, label %.sink.split, label %.thread

.thread:                                          ; preds = %11, %18, %27
  %36 = getelementptr inbounds nuw i8, ptr %1, i64 52
  %37 = load i32, ptr %36, align 4, !tbaa !82
  store i32 %37, ptr %7, align 8, !tbaa !49
  store i64 %17, ptr %1, align 8, !tbaa !4
  %38 = tail call i32 @lj_record_mm_lookup(ptr noundef %0, ptr noundef nonnull %1, i32 noundef 4)
  %.not45 = icmp eq i32 %38, 0
  br i1 %.not45, label %55, label %39

39:                                               ; preds = %.thread
  %40 = load i32, ptr %12, align 8, !tbaa !52
  %41 = call i32 @lj_record_objcmp(ptr noundef %0, i32 noundef %13, i32 noundef %40, ptr noundef nonnull %4, ptr noundef nonnull %14)
  %.not46 = icmp eq i32 %41, 0
  br i1 %.not46, label %54, label %55

.sink.split:                                      ; preds = %27, %18
  %.sink = phi i16 [ 5, %18 ], [ 11, %27 ]
  %42 = getelementptr inbounds nuw i8, ptr %1, i64 52
  %43 = load i32, ptr %42, align 4, !tbaa !82
  %44 = trunc i32 %43 to i16
  %45 = getelementptr inbounds nuw i8, ptr %0, i64 184
  %46 = getelementptr inbounds nuw i8, ptr %0, i64 188
  store i16 17675, ptr %46, align 4, !tbaa !4
  store i16 %44, ptr %45, align 8, !tbaa !4
  %47 = getelementptr inbounds nuw i8, ptr %0, i64 186
  store i16 %.sink, ptr %47, align 2, !tbaa !4
  %48 = tail call i32 @lj_opt_fold(ptr noundef %0) #8
  %49 = trunc i32 %48 to i16
  %50 = getelementptr inbounds nuw i8, ptr %1, i64 60
  %51 = load i32, ptr %50, align 4, !tbaa !80
  %52 = trunc i32 %51 to i16
  store i16 2187, ptr %46, align 4, !tbaa !4
  store i16 %49, ptr %45, align 8, !tbaa !4
  store i16 %52, ptr %47, align 2, !tbaa !4
  %53 = tail call i32 @lj_opt_fold(ptr noundef %0) #8
  br label %54

54:                                               ; preds = %.sink.split, %39
  call fastcc void @rec_mm_callcomp(ptr noundef %0, ptr noundef %1, i32 noundef %2)
  br label %55

55:                                               ; preds = %.thread, %39, %54
  call void @llvm.lifetime.end.p0(i64 8, ptr nonnull %4) #8
  br label %56

56:                                               ; preds = %55, %3
  ret void
}